#include <math.h>
#include <stdio.h>
#include <stdlib.h>
#include <string.h>


int main(int argc, char* argv[])
{int n,i;
double a,b,c,d,x1,x2;
scanf("%d",&n);
	  for(i=0;i<n;i++)
	  {scanf("%lf%lf%lf",&a,&b,&c);
	  d=-4*a*c+b*b;
	  if(d>0)
	  {x1=(-b+sqrt(d))/(2*a);
	  x2=(-b-sqrt(d))/(2*a);
	  printf("x1=%.5lf;x2=%.5lf\n",x1,x2);}
	  else if(d==0)
	  {x1=(-b+sqrt(d))/(2*a);
	  printf("x1=x2=%.5lf\n",x1);}
	  else
	  {printf("x1=%.5lf+%.5lfi;x2=%.5lf-%.5lfi\n",(-b)/(2*a),
	  sqrt(-d)/(2*a),(-b)/(2*a),sqrt(-d)/(2*a));}}
	return 0;
}