; ModuleID = '27/1822.c'
source_filename = "27/1822.c"
target datalayout = "e-m:e-p270:32:32-p271:32:32-p272:64:64-i64:64-f80:128-n8:16:32:64-S128"
target triple = "x86_64-pc-linux-gnu"

@.str = private unnamed_addr constant [3 x i8] c"%d\00", align 1
@.str.1 = private unnamed_addr constant [10 x i8] c"%lf%lf%lf\00", align 1
@.str.2 = private unnamed_addr constant [19 x i8] c"x1=%.5lf;x2=%.5lf\0A\00", align 1
@.str.3 = private unnamed_addr constant [13 x i8] c"x1=x2=%.5lf\0A\00", align 1
@.str.4 = private unnamed_addr constant [33 x i8] c"x1=%.5lf+%.5lfi;x2=%.5lf-%.5lfi\0A\00", align 1

; Function Attrs: noinline nounwind uwtable
define dso_local i32 @main(i32 %0, i8** %1) #0 {
  %3 = alloca i32, align 4
  %4 = alloca i32, align 4
  %5 = alloca i8**, align 8
  %6 = alloca i32, align 4
  %7 = alloca i32, align 4
  %8 = alloca double, align 8
  %9 = alloca double, align 8
  %10 = alloca double, align 8
  %11 = alloca double, align 8
  %12 = alloca double, align 8
  %13 = alloca double, align 8
  store i32 0, i32* %3, align 4
  store i32 %0, i32* %4, align 4
  store i8** %1, i8*** %5, align 8
  %14 = call i32 (i8*, ...) @__isoc99_scanf(i8* getelementptr inbounds ([3 x i8], [3 x i8]* @.str, i64 0, i64 0), i32* %6)
  store i32 0, i32* %7, align 4
  br label %15

15:                                               ; preds = %91, %2
  %16 = load i32, i32* %7, align 4
  %17 = load i32, i32* %6, align 4
  %18 = icmp slt i32 %16, %17
  br i1 %18, label %19, label %94

19:                                               ; preds = %15
  %20 = call i32 (i8*, ...) @__isoc99_scanf(i8* getelementptr inbounds ([10 x i8], [10 x i8]* @.str.1, i64 0, i64 0), double* %8, double* %9, double* %10)
  %21 = load double, double* %8, align 8
  %22 = fmul double -4.000000e+00, %21
  %23 = load double, double* %10, align 8
  %24 = fmul double %22, %23
  %25 = load double, double* %9, align 8
  %26 = load double, double* %9, align 8
  %27 = fmul double %25, %26
  %28 = fadd double %24, %27
  store double %28, double* %11, align 8
  %29 = load double, double* %11, align 8
  %30 = fcmp ogt double %29, 0.000000e+00
  br i1 %30, label %31, label %51

31:                                               ; preds = %19
  %32 = load double, double* %9, align 8
  %33 = fneg double %32
  %34 = load double, double* %11, align 8
  %35 = call double @sqrt(double %34) #3
  %36 = fadd double %33, %35
  %37 = load double, double* %8, align 8
  %38 = fmul double 2.000000e+00, %37
  %39 = fdiv double %36, %38
  store double %39, double* %12, align 8
  %40 = load double, double* %9, align 8
  %41 = fneg double %40
  %42 = load double, double* %11, align 8
  %43 = call double @sqrt(double %42) #3
  %44 = fsub double %41, %43
  %45 = load double, double* %8, align 8
  %46 = fmul double 2.000000e+00, %45
  %47 = fdiv double %44, %46
  store double %47, double* %13, align 8
  %48 = load double, double* %12, align 8
  %49 = load double, double* %13, align 8
  %50 = call i32 (i8*, ...) @printf(i8* getelementptr inbounds ([19 x i8], [19 x i8]* @.str.2, i64 0, i64 0), double %48, double %49)
  br label %90

51:                                               ; preds = %19
  %52 = load double, double* %11, align 8
  %53 = fcmp oeq double %52, 0.000000e+00
  br i1 %53, label %54, label %65

54:                                               ; preds = %51
  %55 = load double, double* %9, align 8
  %56 = fneg double %55
  %57 = load double, double* %11, align 8
  %58 = call double @sqrt(double %57) #3
  %59 = fadd double %56, %58
  %60 = load double, double* %8, align 8
  %61 = fmul double 2.000000e+00, %60
  %62 = fdiv double %59, %61
  store double %62, double* %12, align 8
  %63 = load double, double* %12, align 8
  %64 = call i32 (i8*, ...) @printf(i8* getelementptr inbounds ([13 x i8], [13 x i8]* @.str.3, i64 0, i64 0), double %63)
  br label %89

65:                                               ; preds = %51
  %66 = load double, double* %9, align 8
  %67 = fneg double %66
  %68 = load double, double* %8, align 8
  %69 = fmul double 2.000000e+00, %68
  %70 = fdiv double %67, %69
  %71 = load double, double* %11, align 8
  %72 = fneg double %71
  %73 = call double @sqrt(double %72) #3
  %74 = load double, double* %8, align 8
  %75 = fmul double 2.000000e+00, %74
  %76 = fdiv double %73, %75
  %77 = load double, double* %9, align 8
  %78 = fneg double %77
  %79 = load double, double* %8, align 8
  %80 = fmul double 2.000000e+00, %79
  %81 = fdiv double %78, %80
  %82 = load double, double* %11, align 8
  %83 = fneg double %82
  %84 = call double @sqrt(double %83) #3
  %85 = load double, double* %8, align 8
  %86 = fmul double 2.000000e+00, %85
  %87 = fdiv double %84, %86
  %88 = call i32 (i8*, ...) @printf(i8* getelementptr inbounds ([33 x i8], [33 x i8]* @.str.4, i64 0, i64 0), double %70, double %76, double %81, double %87)
  br label %89

89:                                               ; preds = %65, %54
  br label %90

90:                                               ; preds = %89, %31
  br label %91

91:                                               ; preds = %90
  %92 = load i32, i32* %7, align 4
  %93 = add nsw i32 %92, 1
  store i32 %93, i32* %7, align 4
  br label %15

94:                                               ; preds = %15
  ret i32 0
}

declare dso_local i32 @__isoc99_scanf(i8*, ...) #1

; Function Attrs: nounwind
declare dso_local double @sqrt(double) #2

declare dso_local i32 @printf(i8*, ...) #1


!llvm.module.flags = !{!0}
!llvm.ident = !{!1}

!0 = !{i32 1, !"wchar_size", i32 4}
!1 = !{!"clang version 10.0.0-4ubuntu1 "}
